target datalayout = "e-m:e-p270:32:32-p271:32:32-p272:64:64-i64:64-i128:128-f80:128-n8:16:32:64-S128"
target triple = "x86_64-pc-linux-gnu"

@.str.15 = private unnamed_addr constant [2 x i8] c"<\00", align 1
@.str.46 = private unnamed_addr constant [7 x i8] c"BIGNUM\00", align 1
@.str.47 = private unnamed_addr constant [2 x i8] c"0\00", align 1

; Function Attrs: nounwind uwtable
define i32 @test_BN_lt_zero(ptr noundef %0, i32 noundef %1, ptr noundef %2, ptr noundef %3) #0 {
  %5 = alloca i32, align 4
  %6 = alloca ptr, align 8
  %7 = alloca i32, align 4
  %8 = alloca ptr, align 8
  %9 = alloca ptr, align 8
  store ptr %0, ptr %6, align 8, !tbaa !3
  store i32 %1, ptr %7, align 4, !tbaa !8
  store ptr %2, ptr %8, align 8, !tbaa !3
  store ptr %3, ptr %9, align 8, !tbaa !18
  %10 = load ptr, ptr %9, align 8, !tbaa !18
  %11 = icmp ne ptr %10, null
  br i1 %11, label %12, label %21

12:                                               ; preds = %4
  %13 = load ptr, ptr %9, align 8, !tbaa !18
  %14 = call i32 @BN_is_negative(ptr noundef %13)
  %15 = icmp ne i32 %14, 0
  br i1 %15, label %16, label %21

16:                                               ; preds = %12
  %17 = load ptr, ptr %9, align 8, !tbaa !18
  %18 = call i32 @BN_is_zero(ptr noundef %17)
  %19 = icmp ne i32 %18, 0
  br i1 %19, label %21, label %20

20:                                               ; preds = %16
  store i32 1, ptr %5, align 4
  br label %26

21:                                               ; preds = %16, %12, %4
  %22 = load ptr, ptr %6, align 8, !tbaa !3
  %23 = load i32, ptr %7, align 4, !tbaa !8
  %24 = load ptr, ptr %8, align 8, !tbaa !3
  %25 = load ptr, ptr %9, align 8, !tbaa !18
  call void @test_fail_bignum_mono_message(ptr noundef null, ptr noundef %22, i32 noundef %23, ptr noundef @.str.46, ptr noundef %24, ptr noundef @.str.47, ptr noundef @.str.15, ptr noundef %25)
  store i32 0, ptr %5, align 4
  br label %26

26:                                               ; preds = %21, %20
  %27 = load i32, ptr %5, align 4
  ret i32 %27
}